target datalayout = "e-m:e-p270:32:32-p271:32:32-p272:64:64-i64:64-i128:128-f80:128-n8:16:32:64-S128"
target triple = "x86_64-unknown-linux-gnu"

%"class.grpc_core::NoDestruct.135" = type { [8 x i8] }
%"struct.grpc_core::json_detail::Element" = type { ptr, i16, i8, ptr, ptr }
%"class.grpc_core::json_detail::Vec.173" = type { [1 x %"struct.grpc_core::json_detail::Element"] }
%"class.grpc_core::json_detail::LoaderInterface" = type { ptr }
%"class.grpc_core::json_detail::JsonObjectLoader.192" = type { %"class.grpc_core::json_detail::Vec.173" }
%"class.grpc_core::json_detail::JsonObjectLoader.193" = type { i8 }
%"class.grpc_core::json_detail::FinishedJsonObjectLoader.194" = type { %"class.grpc_core::json_detail::LoaderInterface", %"class.grpc_core::json_detail::Vec.173" }

@_ZN9grpc_core19NoDestructSingletonINS_11json_detail10AutoLoaderISt6vectorINS_12_GLOBAL__N_112MethodConfig4NameESaIS6_EEEEE6value_E = internal global %"class.grpc_core::NoDestruct.135" zeroinitializer, align 8
@_ZTVN9grpc_core11json_detail15LoaderInterfaceE = linkonce_odr unnamed_addr constant { [3 x ptr] } { [3 x ptr] [ptr null, ptr @_ZTIN9grpc_core11json_detail15LoaderInterfaceE, ptr @__cxa_pure_virtual] }, comdat, align 8
@_ZZN9grpc_core12_GLOBAL__N_112MethodConfig10JsonLoaderERKNS_8JsonArgsEE6loader = internal global ptr null, align 8
@_ZGVZN9grpc_core12_GLOBAL__N_112MethodConfig10JsonLoaderERKNS_8JsonArgsEE6loader = internal global i64 0, align 8
@.str.27 = private unnamed_addr constant [5 x i8] c"name\00", align 1

; Function Attrs: mustprogress nounwind uwtable
define internal noundef ptr @_ZN9grpc_core10NoDestructINS_11json_detail10AutoLoaderISt6vectorINS_12_GLOBAL__N_112MethodConfig4NameESaIS6_EEEEE3getEv(ptr noundef nonnull align 8 dereferenceable(8) %this) #6 align 2 {
entry:
  %this.addr = alloca ptr, align 8
  store ptr %this, ptr %this.addr, align 8
  %this1 = load ptr, ptr %this.addr, align 8
  %space_ = getelementptr inbounds %"class.grpc_core::NoDestruct.135", ptr %this1, i32 0, i32 0
  ret ptr %space_
}

; Function Attrs: mustprogress nounwind uwtable
define linkonce_odr noundef ptr @_ZNK9grpc_core11json_detail3VecINS0_7ElementELm0EE4dataEv(ptr noundef nonnull align 1 dereferenceable(1) %this) #6 comdat align 2 {
entry:
  %this.addr = alloca ptr, align 8
  store ptr %this, ptr %this.addr, align 8
  ret ptr null
}

; Function Attrs: mustprogress nounwind uwtable
define linkonce_odr noundef i64 @_ZNK9grpc_core11json_detail3VecINS0_7ElementELm0EE4sizeEv(ptr noundef nonnull align 1 dereferenceable(1) %this) #6 comdat align 2 {
entry:
  %this.addr = alloca ptr, align 8
  store ptr %this, ptr %this.addr, align 8
  ret i64 0
}

; Function Attrs: mustprogress uwtable
define internal noundef nonnull align 8 dereferenceable(8) ptr @_ZN9grpc_core10NoDestructINS_11json_detail10AutoLoaderISt6vectorINS_12_GLOBAL__N_112MethodConfig4NameESaIS6_EEEEEdeEv(ptr noundef nonnull align 8 dereferenceable(8) %this) #4 align 2 {
entry:
  %this.addr = alloca ptr, align 8
  store ptr %this, ptr %this.addr, align 8
  %this1 = load ptr, ptr %this.addr, align 8
  %call = call noundef ptr @_ZN9grpc_core10NoDestructINS_11json_detail10AutoLoaderISt6vectorINS_12_GLOBAL__N_112MethodConfig4NameESaIS6_EEEEE3getEv(ptr noundef nonnull align 8 dereferenceable(8) %this1)
  ret ptr %call
}

; Function Attrs: mustprogress uwtable
define linkonce_odr void @_ZN9grpc_core11json_detail3VecINS0_7ElementELm1EEC2ERKNS1_IS2_Lm0EEERKS2_(ptr noundef nonnull align 8 dereferenceable(32) %this, ptr noundef nonnull align 1 dereferenceable(1) %other, ptr noundef nonnull align 8 dereferenceable(32) %new_value) unnamed_addr #4 comdat align 2 {
entry:
  %this.addr = alloca ptr, align 8
  %other.addr = alloca ptr, align 8
  %new_value.addr = alloca ptr, align 8
  %i = alloca i64, align 8
  store ptr %this, ptr %this.addr, align 8
  store ptr %other, ptr %other.addr, align 8
  store ptr %new_value, ptr %new_value.addr, align 8
  %this1 = load ptr, ptr %this.addr, align 8
  store i64 0, ptr %i, align 8
  br label %for.cond

for.cond:                                         ; preds = %for.inc, %entry
  %0 = load i64, ptr %i, align 8
  %1 = load ptr, ptr %other.addr, align 8
  %call = call noundef i64 @_ZNK9grpc_core11json_detail3VecINS0_7ElementELm0EE4sizeEv(ptr noundef nonnull align 1 dereferenceable(1) %1)
  %cmp = icmp ult i64 %0, %call
  br i1 %cmp, label %for.body, label %for.end

for.body:                                         ; preds = %for.cond
  %2 = load ptr, ptr %other.addr, align 8
  %call2 = call noundef ptr @_ZNK9grpc_core11json_detail3VecINS0_7ElementELm0EE4dataEv(ptr noundef nonnull align 1 dereferenceable(1) %2)
  %3 = load i64, ptr %i, align 8
  %arrayidx = getelementptr inbounds %"struct.grpc_core::json_detail::Element", ptr %call2, i64 %3
  %values_3 = getelementptr inbounds %"class.grpc_core::json_detail::Vec.173", ptr %this1, i32 0, i32 0
  %4 = load i64, ptr %i, align 8
  %arrayidx4 = getelementptr inbounds [1 x %"struct.grpc_core::json_detail::Element"], ptr %values_3, i64 0, i64 %4
  call void @llvm.memcpy.p0.p0.i64(ptr align 8 %arrayidx4, ptr align 8 %arrayidx, i64 32, i1 false)
  br label %for.inc

for.inc:                                          ; preds = %for.body
  %5 = load i64, ptr %i, align 8
  %inc = add i64 %5, 1
  store i64 %inc, ptr %i, align 8
  br label %for.cond, !llvm.loop !15

for.end:                                          ; preds = %for.cond
  %6 = load ptr, ptr %new_value.addr, align 8
  %values_5 = getelementptr inbounds %"class.grpc_core::json_detail::Vec.173", ptr %this1, i32 0, i32 0
  %arrayidx6 = getelementptr inbounds [1 x %"struct.grpc_core::json_detail::Element"], ptr %values_5, i64 0, i64 0
  call void @llvm.memcpy.p0.p0.i64(ptr align 8 %arrayidx6, ptr align 8 %6, i64 32, i1 false)
  ret void
}

; Function Attrs: mustprogress uwtable
define internal noundef ptr @_ZN9grpc_core19NoDestructSingletonINS_11json_detail10AutoLoaderISt6vectorINS_12_GLOBAL__N_112MethodConfig4NameESaIS6_EEEEE3GetEv() #4 align 2 {
entry:
  %call = call noundef nonnull align 8 dereferenceable(8) ptr @_ZN9grpc_core10NoDestructINS_11json_detail10AutoLoaderISt6vectorINS_12_GLOBAL__N_112MethodConfig4NameESaIS6_EEEEEdeEv(ptr noundef nonnull align 8 dereferenceable(8) @_ZN9grpc_core19NoDestructSingletonINS_11json_detail10AutoLoaderISt6vectorINS_12_GLOBAL__N_112MethodConfig4NameESaIS6_EEEEE6value_E)
  ret ptr %call
}

; Function Attrs: mustprogress nounwind uwtable
define linkonce_odr void @_ZN9grpc_core11json_detail15LoaderInterfaceC2Ev(ptr noundef nonnull align 8 dereferenceable(8) %this) unnamed_addr #6 comdat align 2 {
entry:
  %this.addr = alloca ptr, align 8
  store ptr %this, ptr %this.addr, align 8
  %this1 = load ptr, ptr %this.addr, align 8
  store ptr getelementptr inbounds ({ [3 x ptr] }, ptr @_ZTVN9grpc_core11json_detail15LoaderInterfaceE, i32 0, i32 0, i32 2), ptr %this1, align 8
  ret void
}

; Function Attrs: mustprogress uwtable
define internal void @_ZN9grpc_core11json_detail16JsonObjectLoaderINS_12_GLOBAL__N_112MethodConfigELm1EEC2ERKNS0_3VecINS0_7ElementELm0EEES6_(ptr noundef nonnull align 8 dereferenceable(32) %this, ptr noundef nonnull align 1 dereferenceable(1) %elements, ptr noundef byval(%"struct.grpc_core::json_detail::Element") align 8 %new_element) unnamed_addr #4 align 2 {
entry:
  %this.addr = alloca ptr, align 8
  %elements.addr = alloca ptr, align 8
  store ptr %this, ptr %this.addr, align 8
  store ptr %elements, ptr %elements.addr, align 8
  %this1 = load ptr, ptr %this.addr, align 8
  %elements_ = getelementptr inbounds %"class.grpc_core::json_detail::JsonObjectLoader.192", ptr %this1, i32 0, i32 0
  %0 = load ptr, ptr %elements.addr, align 8
  call void @_ZN9grpc_core11json_detail3VecINS0_7ElementELm1EEC2ERKNS1_IS2_Lm0EEERKS2_(ptr noundef nonnull align 8 dereferenceable(32) %elements_, ptr noundef nonnull align 1 dereferenceable(1) %0, ptr noundef nonnull align 8 dereferenceable(32) %new_element)
  ret void
}

; Function Attrs: mustprogress nounwind uwtable
define internal void @_ZN9grpc_core11json_detail7ElementC2INS_12_GLOBAL__N_112MethodConfigESt6vectorINS4_4NameESaIS6_EEEEPKcbMT_T0_PKNS0_15LoaderInterfaceESA_(ptr noundef nonnull align 8 dereferenceable(32) %this, ptr noundef %name, i1 noundef zeroext %optional, i64 %p, ptr noundef %loader, ptr noundef %enable_key) unnamed_addr #6 align 2 {
entry:
  %this.addr = alloca ptr, align 8
  %name.addr = alloca ptr, align 8
  %optional.addr = alloca i8, align 1
  %p.addr = alloca i64, align 8
  %loader.addr = alloca ptr, align 8
  %enable_key.addr = alloca ptr, align 8
  store ptr %this, ptr %this.addr, align 8
  store ptr %name, ptr %name.addr, align 8
  %frombool = zext i1 %optional to i8
  store i8 %frombool, ptr %optional.addr, align 1
  store i64 %p, ptr %p.addr, align 8
  store ptr %loader, ptr %loader.addr, align 8
  store ptr %enable_key, ptr %enable_key.addr, align 8
  %this1 = load ptr, ptr %this.addr, align 8
  %loader2 = getelementptr inbounds %"struct.grpc_core::json_detail::Element", ptr %this1, i32 0, i32 0
  %0 = load ptr, ptr %loader.addr, align 8
  store ptr %0, ptr %loader2, align 8
  %member_offset = getelementptr inbounds %"struct.grpc_core::json_detail::Element", ptr %this1, i32 0, i32 1
  %1 = load i64, ptr %p.addr, align 8
  %memptr.offset = getelementptr inbounds i8, ptr null, i64 %1
  %2 = ptrtoint ptr %memptr.offset to i64
  %conv = trunc i64 %2 to i16
  store i16 %conv, ptr %member_offset, align 8
  %optional3 = getelementptr inbounds %"struct.grpc_core::json_detail::Element", ptr %this1, i32 0, i32 2
  %3 = load i8, ptr %optional.addr, align 1
  %tobool = trunc i8 %3 to i1
  %frombool4 = zext i1 %tobool to i8
  store i8 %frombool4, ptr %optional3, align 2
  %name5 = getelementptr inbounds %"struct.grpc_core::json_detail::Element", ptr %this1, i32 0, i32 3
  %4 = load ptr, ptr %name.addr, align 8
  store ptr %4, ptr %name5, align 8
  %enable_key6 = getelementptr inbounds %"struct.grpc_core::json_detail::Element", ptr %this1, i32 0, i32 4
  %5 = load ptr, ptr %enable_key.addr, align 8
  store ptr %5, ptr %enable_key6, align 8
  ret void
}

; Function Attrs: mustprogress uwtable
define internal noundef ptr @_ZN9grpc_core11json_detail13LoaderForTypeISt6vectorINS_12_GLOBAL__N_112MethodConfig4NameESaIS5_EEEEPKNS0_15LoaderInterfaceEv() #4 {
entry:
  %call = call noundef ptr @_ZN9grpc_core19NoDestructSingletonINS_11json_detail10AutoLoaderISt6vectorINS_12_GLOBAL__N_112MethodConfig4NameESaIS6_EEEEE3GetEv()
  ret ptr %call
}

; Function Attrs: mustprogress nounwind uwtable
define internal void @_ZN9grpc_core11json_detail24FinishedJsonObjectLoaderINS_12_GLOBAL__N_112MethodConfigELm1EvEC2ERKNS0_3VecINS0_7ElementELm1EEE(ptr noundef nonnull align 8 dereferenceable(40) %this, ptr noundef nonnull align 8 dereferenceable(32) %elements) unnamed_addr #6 align 2 {
entry:
  %this.addr = alloca ptr, align 8
  %elements.addr = alloca ptr, align 8
  store ptr %this, ptr %this.addr, align 8
  store ptr %elements, ptr %elements.addr, align 8
  %this1 = load ptr, ptr %this.addr, align 8
  call void @_ZN9grpc_core11json_detail15LoaderInterfaceC2Ev(ptr noundef nonnull align 8 dereferenceable(8) %this1) #3
  store ptr getelementptr inbounds ({ [3 x ptr] }, ptr @_ZTVN9grpc_core11json_detail24FinishedJsonObjectLoaderINS_12_GLOBAL__N_112MethodConfigELm1EvEE, i32 0, i32 0, i32 2), ptr %this1, align 8
  %elements_ = getelementptr inbounds %"class.grpc_core::json_detail::FinishedJsonObjectLoader.194", ptr %this1, i32 0, i32 1
  %0 = load ptr, ptr %elements.addr, align 8
  call void @llvm.memcpy.p0.p0.i64(ptr align 8 %elements_, ptr align 8 %0, i64 32, i1 false)
  ret void
}

; Function Attrs: mustprogress uwtable
define internal void @_ZNK9grpc_core11json_detail16JsonObjectLoaderINS_12_GLOBAL__N_112MethodConfigELm0EE5FieldISt6vectorINS3_4NameESaIS7_EEEENS1_IS3_Lm1EEEPKcbMS3_T_SC_(ptr noalias sret(%"class.grpc_core::json_detail::JsonObjectLoader.192") align 8 %agg.result, ptr noundef nonnull align 1 dereferenceable(1) %this, ptr noundef %name, i1 noundef zeroext %optional, i64 %p, ptr noundef %enable_key) #4 align 2 {
entry:
  %this.addr = alloca ptr, align 8
  %name.addr = alloca ptr, align 8
  %optional.addr = alloca i8, align 1
  %p.addr = alloca i64, align 8
  %enable_key.addr = alloca ptr, align 8
  %agg.tmp = alloca %"struct.grpc_core::json_detail::Element", align 8
  store ptr %this, ptr %this.addr, align 8
  store ptr %name, ptr %name.addr, align 8
  %frombool = zext i1 %optional to i8
  store i8 %frombool, ptr %optional.addr, align 1
  store i64 %p, ptr %p.addr, align 8
  store ptr %enable_key, ptr %enable_key.addr, align 8
  %this1 = load ptr, ptr %this.addr, align 8
  %0 = load ptr, ptr %name.addr, align 8
  %1 = load i8, ptr %optional.addr, align 1
  %tobool = trunc i8 %1 to i1
  %2 = load i64, ptr %p.addr, align 8
  %call = call noundef ptr @_ZN9grpc_core11json_detail13LoaderForTypeISt6vectorINS_12_GLOBAL__N_112MethodConfig4NameESaIS5_EEEEPKNS0_15LoaderInterfaceEv()
  %3 = load ptr, ptr %enable_key.addr, align 8
  call void @_ZN9grpc_core11json_detail7ElementC2INS_12_GLOBAL__N_112MethodConfigESt6vectorINS4_4NameESaIS6_EEEEPKcbMT_T0_PKNS0_15LoaderInterfaceESA_(ptr noundef nonnull align 8 dereferenceable(32) %agg.tmp, ptr noundef %0, i1 noundef zeroext %tobool, i64 %2, ptr noundef %call, ptr noundef %3)
  call void @_ZN9grpc_core11json_detail16JsonObjectLoaderINS_12_GLOBAL__N_112MethodConfigELm1EEC2ERKNS0_3VecINS0_7ElementELm0EEES6_(ptr noundef nonnull align 8 dereferenceable(32) %agg.result, ptr noundef nonnull align 1 dereferenceable(1) %this1, ptr noundef byval(%"struct.grpc_core::json_detail::Element") align 8 %agg.tmp)
  ret void
}

; Function Attrs: mustprogress uwtable
define internal noundef ptr @_ZNK9grpc_core11json_detail16JsonObjectLoaderINS_12_GLOBAL__N_112MethodConfigELm1EE6FinishEv(ptr noundef nonnull align 8 dereferenceable(32) %this) #4 align 2 personality ptr @__gxx_personality_v0 {
entry:
  %this.addr = alloca ptr, align 8
  %exn.slot = alloca ptr, align 8
  %ehselector.slot = alloca i32, align 4
  store ptr %this, ptr %this.addr, align 8
  %this1 = load ptr, ptr %this.addr, align 8
  %call = call noalias noundef nonnull ptr @_Znwm(i64 noundef 40) #15
  %elements_ = getelementptr inbounds %"class.grpc_core::json_detail::JsonObjectLoader.192", ptr %this1, i32 0, i32 0
  invoke void @_ZN9grpc_core11json_detail24FinishedJsonObjectLoaderINS_12_GLOBAL__N_112MethodConfigELm1EvEC2ERKNS0_3VecINS0_7ElementELm1EEE(ptr noundef nonnull align 8 dereferenceable(40) %call, ptr noundef nonnull align 8 dereferenceable(32) %elements_)
          to label %invoke.cont unwind label %lpad

invoke.cont:                                      ; preds = %entry
  ret ptr %call

lpad:                                             ; preds = %entry
  %0 = landingpad { ptr, i32 }
          cleanup
  %1 = extractvalue { ptr, i32 } %0, 0
  store ptr %1, ptr %exn.slot, align 8
  %2 = extractvalue { ptr, i32 } %0, 1
  store i32 %2, ptr %ehselector.slot, align 4
  call void @_ZdlPv(ptr noundef %call) #16
  br label %eh.resume

eh.resume:                                        ; preds = %lpad
  %exn = load ptr, ptr %exn.slot, align 8
  %sel = load i32, ptr %ehselector.slot, align 4
  %lpad.val = insertvalue { ptr, i32 } poison, ptr %exn, 0
  %lpad.val2 = insertvalue { ptr, i32 } %lpad.val, i32 %sel, 1
  resume { ptr, i32 } %lpad.val2
}

; Function Attrs: mustprogress uwtable
define internal void @_ZNK9grpc_core11json_detail16JsonObjectLoaderINS_12_GLOBAL__N_112MethodConfigELm0EE13OptionalFieldISt6vectorINS3_4NameESaIS7_EEEENS1_IS3_Lm1EEEPKcMS3_T_SC_(ptr noalias sret(%"class.grpc_core::json_detail::JsonObjectLoader.192") align 8 %agg.result, ptr noundef nonnull align 1 dereferenceable(1) %this, ptr noundef %name, i64 %p, ptr noundef %enable_key) #4 align 2 {
entry:
  %this.addr = alloca ptr, align 8
  %name.addr = alloca ptr, align 8
  %p.addr = alloca i64, align 8
  %enable_key.addr = alloca ptr, align 8
  store ptr %this, ptr %this.addr, align 8
  store ptr %name, ptr %name.addr, align 8
  store i64 %p, ptr %p.addr, align 8
  store ptr %enable_key, ptr %enable_key.addr, align 8
  %this1 = load ptr, ptr %this.addr, align 8
  %0 = load ptr, ptr %name.addr, align 8
  %1 = load i64, ptr %p.addr, align 8
  %2 = load ptr, ptr %enable_key.addr, align 8
  call void @_ZNK9grpc_core11json_detail16JsonObjectLoaderINS_12_GLOBAL__N_112MethodConfigELm0EE5FieldISt6vectorINS3_4NameESaIS7_EEEENS1_IS3_Lm1EEEPKcbMS3_T_SC_(ptr sret(%"class.grpc_core::json_detail::JsonObjectLoader.192") align 8 %agg.result, ptr noundef nonnull align 1 dereferenceable(1) %this1, ptr noundef %0, i1 noundef zeroext true, i64 %1, ptr noundef %2)
  ret void
}

; Function Attrs: mustprogress nounwind uwtable
define internal void @_ZN9grpc_core11json_detail16JsonObjectLoaderINS_12_GLOBAL__N_112MethodConfigELm0EEC2Ev(ptr noundef nonnull align 1 dereferenceable(1) %this) unnamed_addr #6 align 2 {
entry:
  %this.addr = alloca ptr, align 8
  store ptr %this, ptr %this.addr, align 8
  ret void
}

; Function Attrs: mustprogress uwtable
define internal noundef ptr @_ZN9grpc_core12_GLOBAL__N_112MethodConfig10JsonLoaderERKNS_8JsonArgsE(ptr noundef nonnull align 8 dereferenceable(8) %0) #4 align 2 personality ptr @__gxx_personality_v0 {
entry:
  %.addr = alloca ptr, align 8
  %ref.tmp = alloca %"class.grpc_core::json_detail::JsonObjectLoader.192", align 8
  %ref.tmp1 = alloca %"class.grpc_core::json_detail::JsonObjectLoader.193", align 1
  %exn.slot = alloca ptr, align 8
  %ehselector.slot = alloca i32, align 4
  store ptr %0, ptr %.addr, align 8
  %1 = load atomic i8, ptr @_ZGVZN9grpc_core12_GLOBAL__N_112MethodConfig10JsonLoaderERKNS_8JsonArgsEE6loader acquire, align 8
  %guard.uninitialized = icmp eq i8 %1, 0
  br i1 %guard.uninitialized, label %init.check, label %init.end, !prof !14

init.check:                                       ; preds = %entry
  %2 = call i32 @__cxa_guard_acquire(ptr @_ZGVZN9grpc_core12_GLOBAL__N_112MethodConfig10JsonLoaderERKNS_8JsonArgsEE6loader) #3
  %tobool = icmp ne i32 %2, 0
  br i1 %tobool, label %init, label %init.end

init:                                             ; preds = %init.check
  invoke void @_ZN9grpc_core11json_detail16JsonObjectLoaderINS_12_GLOBAL__N_112MethodConfigELm0EEC2Ev(ptr noundef nonnull align 1 dereferenceable(1) %ref.tmp1)
          to label %invoke.cont unwind label %lpad

invoke.cont:                                      ; preds = %init
  invoke void @_ZNK9grpc_core11json_detail16JsonObjectLoaderINS_12_GLOBAL__N_112MethodConfigELm0EE13OptionalFieldISt6vectorINS3_4NameESaIS7_EEEENS1_IS3_Lm1EEEPKcMS3_T_SC_(ptr sret(%"class.grpc_core::json_detail::JsonObjectLoader.192") align 8 %ref.tmp, ptr noundef nonnull align 1 dereferenceable(1) %ref.tmp1, ptr noundef @.str.27, i64 0, ptr noundef null)
          to label %invoke.cont2 unwind label %lpad

invoke.cont2:                                     ; preds = %invoke.cont
  %call = invoke noundef ptr @_ZNK9grpc_core11json_detail16JsonObjectLoaderINS_12_GLOBAL__N_112MethodConfigELm1EE6FinishEv(ptr noundef nonnull align 8 dereferenceable(32) %ref.tmp)
          to label %invoke.cont3 unwind label %lpad

invoke.cont3:                                     ; preds = %invoke.cont2
  store ptr %call, ptr @_ZZN9grpc_core12_GLOBAL__N_112MethodConfig10JsonLoaderERKNS_8JsonArgsEE6loader, align 8
  call void @__cxa_guard_release(ptr @_ZGVZN9grpc_core12_GLOBAL__N_112MethodConfig10JsonLoaderERKNS_8JsonArgsEE6loader) #3
  br label %init.end

init.end:                                         ; preds = %invoke.cont3, %init.check, %entry
  %3 = load ptr, ptr @_ZZN9grpc_core12_GLOBAL__N_112MethodConfig10JsonLoaderERKNS_8JsonArgsEE6loader, align 8
  ret ptr %3

lpad:                                             ; preds = %invoke.cont2, %invoke.cont, %init
  %4 = landingpad { ptr, i32 }
          cleanup
  %5 = extractvalue { ptr, i32 } %4, 0
  store ptr %5, ptr %exn.slot, align 8
  %6 = extractvalue { ptr, i32 } %4, 1
  store i32 %6, ptr %ehselector.slot, align 4
  call void @__cxa_guard_abort(ptr @_ZGVZN9grpc_core12_GLOBAL__N_112MethodConfig10JsonLoaderERKNS_8JsonArgsEE6loader) #3
  br label %eh.resume

eh.resume:                                        ; preds = %lpad
  %exn = load ptr, ptr %exn.slot, align 8
  %sel = load i32, ptr %ehselector.slot, align 4
  %lpad.val = insertvalue { ptr, i32 } poison, ptr %exn, 0
  %lpad.val4 = insertvalue { ptr, i32 } %lpad.val, i32 %sel, 1
  resume { ptr, i32 } %lpad.val4
}

; Function Attrs: mustprogress uwtable
define internal void @_ZNK9grpc_core11json_detail10AutoLoaderINS_12_GLOBAL__N_112MethodConfigEE8LoadIntoERKNS_12experimental4JsonERKNS_8JsonArgsEPvPNS_16ValidationErrorsE(ptr noundef nonnull align 8 dereferenceable(8) %this, ptr noundef nonnull align 8 dereferenceable(56) %json, ptr noundef nonnull align 8 dereferenceable(8) %args, ptr noundef %dst, ptr noundef %errors) unnamed_addr #4 align 2 {
entry:
  %this.addr = alloca ptr, align 8
  %json.addr = alloca ptr, align 8
  %args.addr = alloca ptr, align 8
  %dst.addr = alloca ptr, align 8
  %errors.addr = alloca ptr, align 8
  store ptr %this, ptr %this.addr, align 8
  store ptr %json, ptr %json.addr, align 8
  store ptr %args, ptr %args.addr, align 8
  store ptr %dst, ptr %dst.addr, align 8
  store ptr %errors, ptr %errors.addr, align 8
  %0 = load ptr, ptr %args.addr, align 8
  %call = call noundef ptr @_ZN9grpc_core12_GLOBAL__N_112MethodConfig10JsonLoaderERKNS_8JsonArgsE(ptr noundef nonnull align 8 dereferenceable(8) %0)
  %1 = load ptr, ptr %json.addr, align 8
  %2 = load ptr, ptr %args.addr, align 8
  %3 = load ptr, ptr %dst.addr, align 8
  %4 = load ptr, ptr %errors.addr, align 8
  %vtable = load ptr, ptr %call, align 8
  %vfn = getelementptr inbounds ptr, ptr %vtable, i64 0
  %5 = load ptr, ptr %vfn, align 8
  call void %5(ptr noundef nonnull align 8 dereferenceable(8) %call, ptr noundef nonnull align 8 dereferenceable(56) %1, ptr noundef nonnull align 8 dereferenceable(8) %2, ptr noundef %3, ptr noundef %4)
  ret void
}